Certificate:
    Data:
        Version: 3 (0x2)
        Serial Number: 2 (0x2)
    Signature Algorithm: sha1WithRSAEncryption
        Issuer: C=CA, ST=Ontario, L=Toronto, O=University of Toronto, OU=ece568, CN=Test CA/emailAddress=test@example.com
        Validity
            Not Before: Oct 28 03:27:20 2018 GMT
            Not After : Jul 24 03:27:20 2021 GMT
        Subject: C=CA, ST=Ontario, L=TO, O=ece568, CN=Test Alice
        Subject Public Key Info:
            Public Key Algorithm: rsaEncryption
                Public-Key: (4096 bit)
                Modulus:
                    00:a6:3b:de:fc:d5:bb:89:c2:e0:12:47:4b:a2:69:
                    82:20:08:c2:d5:9f:4f:5b:ca:ac:de:43:96:56:f6:
                    60:d6:cc:04:0a:0b:64:51:f7:5c:57:f5:ed:62:be:
                    47:e3:46:c1:c7:96:df:c4:3d:64:bd:1d:3b:8c:20:
                    4a:a1:0e:71:41:63:25:21:44:47:ac:5e:9f:b4:54:
                    a8:46:62:97:bc:e5:ba:20:fc:25:77:ed:bb:a1:a5:
                    35:cc:3e:df:11:23:aa:98:0b:c4:bd:9a:e3:d1:f0:
                    ac:24:22:46:77:c5:a8:21:4c:19:d5:c9:55:a4:15:
                    06:e6:ef:08:0f:51:7d:db:a5:94:dd:15:b6:9f:2f:
                    19:e9:bb:72:a9:3e:87:b6:5d:29:ee:23:e0:df:a6:
                    e3:be:05:47:93:aa:56:e5:5f:26:06:fd:30:84:7c:
                    8d:5d:c1:35:70:aa:fb:5e:e9:bf:da:fe:77:a0:4c:
                    da:29:65:c1:5a:7c:ab:0d:f3:97:28:5e:9d:ab:59:
                    6c:1e:73:39:b8:01:9b:9c:da:86:21:77:a9:c9:93:
                    71:0a:b8:81:1e:03:3a:90:c9:1d:e8:e6:60:41:ae:
                    46:5f:8a:d2:7e:0e:f2:79:8f:b4:38:64:03:4c:7b:
                    af:43:1c:18:f4:0a:10:d0:e5:25:59:40:c0:26:cf:
                    b8:cd:ae:2e:6c:94:ba:35:62:04:36:fb:d2:4d:a3:
                    17:0a:cb:59:24:13:9c:73:14:d7:2f:d2:20:92:21:
                    d7:e7:c1:4e:22:95:0f:f2:ab:e5:72:91:28:eb:a4:
                    e3:c3:c2:85:9d:41:18:53:b5:cf:88:24:cd:04:b3:
                    53:f0:6e:24:56:49:95:57:29:11:39:80:68:bd:12:
                    88:b3:e1:70:f1:ab:96:6b:fc:32:25:2e:ac:34:26:
                    60:9e:35:0b:f8:af:a2:53:59:9c:0d:19:9b:85:3d:
                    7d:a5:c3:28:3e:d9:86:29:13:6d:f5:dd:fb:95:bc:
                    c2:b4:46:32:8f:50:cc:66:a3:78:7b:4c:52:d5:74:
                    36:1d:56:8d:1c:5d:aa:0d:ea:e6:b5:0a:a6:38:3a:
                    39:66:36:55:b5:d7:41:13:97:a0:21:cb:6d:69:9b:
                    94:e9:f8:a7:4d:49:5f:29:35:aa:c6:ac:c0:17:44:
                    75:54:c1:62:59:8a:7c:83:8d:18:20:d2:63:44:2e:
                    ac:ed:dc:c3:3a:f1:5c:17:94:d7:a2:c8:8e:52:00:
                    c0:07:94:e2:11:1a:90:6a:30:a1:b3:1a:c5:20:e0:
                    22:d5:21:e7:29:2b:20:09:c0:c9:9d:f3:56:92:8b:
                    01:53:7d:8b:d9:d7:7a:52:93:b9:f5:cc:1e:bd:cb:
                    5e:7b:53
                Exponent: 65537 (0x10001)
        X509v3 extensions:
            X509v3 Basic Constraints: critical
                CA:TRUE
            X509v3 Subject Key Identifier: 
                0D:03:5B:F6:4C:63:7C:9B:BA:D1:88:7D:2C:FE:D7:39:12:1E:14:9B
            X509v3 Authority Key Identifier: 
                keyid:33:2B:14:2C:2E:0D:FD:0D:5D:6D:53:E3:C7:C8:78:E8:0F:B1:5F:FE
                DirName:/C=CA/ST=Ontario/L=Toronto/O=University of Toronto/OU=ece568/CN=Test CA/emailAddress=test@example.com
                serial:BB:56:B2:DE:32:19:F1:98

    Signature Algorithm: sha1WithRSAEncryption
         52:b6:90:94:40:db:11:d3:d5:0e:10:c2:f7:2b:da:0a:65:51:
         3d:2d:dd:8a:95:b7:b2:95:5e:4e:aa:6e:12:17:83:af:78:36:
         dd:02:9c:82:3c:4c:93:1e:ce:66:d4:42:7b:20:fd:d5:0f:1a:
         d3:d5:d6:dc:ed:53:c3:58:55:17:e3:23:11:6c:d2:a8:4a:e4:
         10:56:72:b7:9e:09:ea:c6:6c:67:43:e8:6c:96:85:d9:35:85:
         41:fe:f5:d6:87:a2:32:67:e3:48:bb:93:eb:38:b8:8e:0d:63:
         15:38:c0:f1:5c:26:17:d3:4b:7f:b1:13:4b:ff:3e:19:63:7f:
         01:7a:8f:8e:88:aa:e1:16:f9:fd:d5:01:01:55:29:5c:a7:e1:
         c2:41:6d:38:d9:37:95:cf:4c:53:37:53:ac:3b:be:a9:30:36:
         1b:66:df:67:02:05:b0:ea:32:a3:5e:24:2e:43:0a:2e:65:3a:
         58:8d:4f:af:30:f4:d4:d7:d6:a6:df:45:f9:68:ad:88:34:79:
         51:4c:6a:f2:84:40:8a:dd:e1:87:6b:18:ce:06:41:c5:22:d1:
         8d:8e:72:4d:af:bf:dd:bc:8c:58:c0:bd:46:5e:46:bb:73:64:
         97:9c:0f:89:50:c5:b5:eb:6e:b2:f9:1e:02:1e:88:af:f8:e2:
         d0:24:4f:1b:59:2c:5c:d0:b6:ca:5e:c5:60:c0:6b:19:f3:b9:
         29:3b:c4:7f:09:34:db:5b:7c:c7:96:73:b8:cc:a0:7e:38:4a:
         be:03:95:e6:1f:64:d0:28:42:31:11:e6:b1:16:98:a3:f3:fe:
         9e:1e:c1:ca:b3:a3:21:43:b6:de:c9:99:61:9f:dc:79:23:86:
         26:82:81:e4:36:c8:48:3c:d4:ca:52:f5:d8:2a:e4:cc:94:59:
         33:ee:05:c6:38:d2:9f:b4:0c:38:f2:ee:cd:75:d6:01:b7:7c:
         32:f9:5b:05:0a:10:0e:1c:3a:4b:cf:16:0a:00:e0:87:3b:44:
         9c:17:b4:4d:0c:d4:8e:6f:9c:de:f1:25:8a:2e:51:fd:77:a8:
         5c:9d:c7:a9:b3:a2:01:30:14:c0:17:52:70:92:4e:f3:a5:23:
         f5:af:c5:68:2d:86:ef:bc:f6:85:e7:52:89:77:e6:ee:6f:11:
         77:44:4c:a0:13:59:5f:79:58:57:c4:8f:04:7d:8e:f1:de:d7:
         25:0f:a4:14:71:f5:54:55:2d:01:33:5a:a6:1a:8b:45:dd:8d:
         27:69:e5:14:00:8a:2f:46:75:ee:a6:a8:a3:30:c3:4e:b6:99:
         cd:0d:90:c6:15:ca:03:70:b9:d0:55:53:a1:4e:4d:d1:65:d2:
         2d:06:b2:e6:cb:66:04:55
-----BEGIN CERTIFICATE-----
MIIGZTCCBE2gAwIBAgIBAjANBgkqhkiG9w0BAQUFADCBlTELMAkGA1UEBhMCQ0Ex
EDAOBgNVBAgMB09udGFyaW8xEDAOBgNVBAcMB1Rvcm9udG8xHjAcBgNVBAoMFVVu
aXZlcnNpdHkgb2YgVG9yb250bzEPMA0GA1UECwwGZWNlNTY4MRAwDgYDVQQDDAdU
ZXN0IENBMR8wHQYJKoZIhvcNAQkBFhB0ZXN0QGV4YW1wbGUuY29tMB4XDTE4MTAy
ODAzMjcyMFoXDTIxMDcyNDAzMjcyMFowUjELMAkGA1UEBhMCQ0ExEDAOBgNVBAgM
B09udGFyaW8xCzAJBgNVBAcMAlRPMQ8wDQYDVQQKDAZlY2U1NjgxEzARBgNVBAMM
ClRlc3QgQWxpY2UwggIiMA0GCSqGSIb3DQEBAQUAA4ICDwAwggIKAoICAQCmO978
1buJwuASR0uiaYIgCMLVn09byqzeQ5ZW9mDWzAQKC2RR91xX9e1ivkfjRsHHlt/E
PWS9HTuMIEqhDnFBYyUhREesXp+0VKhGYpe85bog/CV37buhpTXMPt8RI6qYC8S9
muPR8KwkIkZ3xaghTBnVyVWkFQbm7wgPUX3bpZTdFbafLxnpu3KpPoe2XSnuI+Df
puO+BUeTqlblXyYG/TCEfI1dwTVwqvte6b/a/negTNopZcFafKsN85coXp2rWWwe
czm4AZuc2oYhd6nJk3EKuIEeAzqQyR3o5mBBrkZfitJ+DvJ5j7Q4ZANMe69DHBj0
ChDQ5SVZQMAmz7jNri5slLo1YgQ2+9JNoxcKy1kkE5xzFNcv0iCSIdfnwU4ilQ/y
q+VykSjrpOPDwoWdQRhTtc+IJM0Es1PwbiRWSZVXKRE5gGi9Eoiz4XDxq5Zr/DIl
Lqw0JmCeNQv4r6JTWZwNGZuFPX2lwyg+2YYpE2313fuVvMK0RjKPUMxmo3h7TFLV
dDYdVo0cXaoN6ua1CqY4OjlmNlW110ETl6Ahy21pm5Tp+KdNSV8pNarGrMAXRHVU
wWJZinyDjRgg0mNELqzt3MM68VwXlNeiyI5SAMAHlOIRGpBqMKGzGsUg4CLVIecp
KyAJwMmd81aSiwFTfYvZ13pSk7n1zB69y157UwIDAQABo4IBADCB/TAPBgNVHRMB
Af8EBTADAQH/MB0GA1UdDgQWBBQNA1v2TGN8m7rRiH0s/tc5Eh4UmzCBygYDVR0j
BIHCMIG/gBQzKxQsLg39DV1tU+PHyHjoD7Ff/qGBm6SBmDCBlTELMAkGA1UEBhMC
Q0ExEDAOBgNVBAgMB09udGFyaW8xEDAOBgNVBAcMB1Rvcm9udG8xHjAcBgNVBAoM
FVVuaXZlcnNpdHkgb2YgVG9yb250bzEPMA0GA1UECwwGZWNlNTY4MRAwDgYDVQQD
DAdUZXN0IENBMR8wHQYJKoZIhvcNAQkBFhB0ZXN0QGV4YW1wbGUuY29tggkAu1ay
3jIZ8ZgwDQYJKoZIhvcNAQEFBQADggIBAFK2kJRA2xHT1Q4Qwvcr2gplUT0t3YqV
t7KVXk6qbhIXg694Nt0CnII8TJMezmbUQnsg/dUPGtPV1tztU8NYVRfjIxFs0qhK
5BBWcreeCerGbGdD6GyWhdk1hUH+9daHojJn40i7k+s4uI4NYxU4wPFcJhfTS3+x
E0v/PhljfwF6j46IquEW+f3VAQFVKVyn4cJBbTjZN5XPTFM3U6w7vqkwNhtm32cC
BbDqMqNeJC5DCi5lOliNT68w9NTX1qbfRflorYg0eVFMavKEQIrd4YdrGM4GQcUi
0Y2Ock2vv928jFjAvUZeRrtzZJecD4lQxbXrbrL5HgIeiK/44tAkTxtZLFzQtspe
xWDAaxnzuSk7xH8JNNtbfMeWc7jMoH44Sr4DleYfZNAoQjER5rEWmKPz/p4ewcqz
oyFDtt7JmWGf3HkjhiaCgeQ2yEg81MpS9dgq5MyUWTPuBcY40p+0DDjy7s111gG3
fDL5WwUKEA4cOkvPFgoA4Ic7RJwXtE0M1I5vnN7xJYouUf13qFydx6mzogEwFMAX
UnCSTvOlI/WvxWgthu+89oXnUol35u5vEXdETKATWV95WFfEjwR9jvHe1yUPpBRx
9VRVLQEzWqYai0XdjSdp5RQAii9Gde6mqKMww062mc0NkMYVygNwudBVU6FOTdFl
0i0GsubLZgRV
-----END CERTIFICATE-----
-----BEGIN PRIVATE KEY-----
MIIJQgIBADANBgkqhkiG9w0BAQEFAASCCSwwggkoAgEAAoICAQCmO9781buJwuAS
R0uiaYIgCMLVn09byqzeQ5ZW9mDWzAQKC2RR91xX9e1ivkfjRsHHlt/EPWS9HTuM
IEqhDnFBYyUhREesXp+0VKhGYpe85bog/CV37buhpTXMPt8RI6qYC8S9muPR8Kwk
IkZ3xaghTBnVyVWkFQbm7wgPUX3bpZTdFbafLxnpu3KpPoe2XSnuI+DfpuO+BUeT
qlblXyYG/TCEfI1dwTVwqvte6b/a/negTNopZcFafKsN85coXp2rWWweczm4AZuc
2oYhd6nJk3EKuIEeAzqQyR3o5mBBrkZfitJ+DvJ5j7Q4ZANMe69DHBj0ChDQ5SVZ
QMAmz7jNri5slLo1YgQ2+9JNoxcKy1kkE5xzFNcv0iCSIdfnwU4ilQ/yq+VykSjr
pOPDwoWdQRhTtc+IJM0Es1PwbiRWSZVXKRE5gGi9Eoiz4XDxq5Zr/DIlLqw0JmCe
NQv4r6JTWZwNGZuFPX2lwyg+2YYpE2313fuVvMK0RjKPUMxmo3h7TFLVdDYdVo0c
XaoN6ua1CqY4OjlmNlW110ETl6Ahy21pm5Tp+KdNSV8pNarGrMAXRHVUwWJZinyD
jRgg0mNELqzt3MM68VwXlNeiyI5SAMAHlOIRGpBqMKGzGsUg4CLVIecpKyAJwMmd
81aSiwFTfYvZ13pSk7n1zB69y157UwIDAQABAoICAAS1LVt7shP0sOPToRC4bDb8
CIiEOnsfAkZJI7jSwWtT28ltCSpJFxRmopJpUR/eoR5F55BnLLMuYMFXKMXm4s43
QJXwmRcIlv1EaH+VyzZOSzcj7Ou4j9fEFgHyxd52ZB5qNugnusv3ROjBD73Umy5W
OWUUjphXABsKKfBFHotZ5R1dwA5CBznXVSf13WIMwWM9IOE0mL6I574G1O8qAqmw
Ae++l0JQdnL6ZKQLeqN5EWo4wvTpLNCjNzTt8RnzlAOGRMmX+cp8QSvwBFxuRyCu
TEVBdGalMMNo7q/p1lAF33hVNiDby4Ilz7TJIE7KMex0n0BKCK/hzWz5qHdw6orc
8Soh47QzcHaeZLJd7FG39/1fSFMD1InhRZ887BpEFxFyIC+2sRFpY6oL9qEkTri1
sh4bx98SCZNUqyLMTZ+KIQPqMVx1sglBwan4Vq6rb6Ci8RRE3K00QyzuVdJjoT4z
wMTTVt0y8eYjP9XKpGCHUxtJsE+PA2CISLnTvaiyORSKcO2Xqa/Jy4G2hTas+mBm
SEs1nfbf3GYxzyGyA5vljpGBwXJSjy21nadttPq9YAp0za9rntYZrT3dmk+7yxUB
WbesuSRQuV4OBRzBlKT6NI6Z5hgoW+cfmecLq8CQiwjaCgerJ8nGYOWlNNjRuO96
ZyvmakxTdLPa79Xr8UgBAoIBAQDYnuGi/NrIiOHMciTjrXMqwABVM+VgiJ3MxX7H
+uvkVP9mHbZpSny4hlPX+87H1bzG+w5LPQtzBnPL7o9yEKPU+efID9n2lvXvw06S
rgSD2FiD7czmS10gq7get5UKadad22Gh0Vtlxjl2CFibsbqeYU+I0VpVs0+kEV8j
abY8eBqcgDOiQEBiBrVof/bGkAluxB4imlwB5sXHTDGVs6rHaJZafkLGmtCullUI
HhvMWLjgiDr25MSc0q/RvfkWsX+NgiYNl6ge2M6drZqRvXvu/xjImktU8w4ZI/pg
yGwqy2vu88wpZ6XI0nMZw23hE1dfvNqOIMkbIjWKSSouASDjAoIBAQDEdBWOuk6U
bLQ9Q11aE5KfQlV/1F/j0RfXFGJyyCFalRBClUrCf1wgwzj0iXWtduiyAA6IpNo5
aSLNH+9oKCHwHelrT+dkgnlfDtAQ4Ns1N/9A26BKdGrBPY/PVEoQ24t+Gfgkhazn
SghH4xDvL5SRPNdTkK5BI1FepU+Pqc0buNL1sGurcGvsWK1MfCHfx5Vy9cIaxQqB
OSMRbcdd4bf1VYGN7CjZkN0L+cnIhxawkm0roXvRWgi4PKYZHu+3/uY5noBM2cZt
ULHgqIu0amoXDyqY38PHQvLH5rxfHlQdrC8esOu9YaQ4s01RgcKnew+EnZN7QOIO
hRZgOMS/rnbRAoIBABUWgojHbNUQ3kp04jp37DpBLsccojvfkN0abNkzCDvWOnbK
dbOSWMnt6cOg8+RoXlRQpHeWncK44hT8SGKmVAyrt3C2elWTJKYOsVt+LVpYeWV+
hO/2bj57+RSkcpHs88OyU7LZGrixr25aKaYeizhX6NI87zpglmQ2fLiJ1f/VAWIy
6NPmxV3FoWtm6bMy2ng6B2T++e4FdUONm1Yjg4CeIeT1XbLP53jXkbeUlsgx6u2Q
1YyrgKhzqkIU6GbZKL2x6dpw5SD7okGfYOjHNYVyuArvWl4Ou1SfOASr/ju8Semd
OkbdnDoMor/jUpMSuvLLA8vKTUmi7utjbAPGgFkCggEAZAMFBohqgL1mdNnaqITW
XCWVCWLA/mXwURqbk/u2nzrL8Fm4mZPk/vjkAfoI4qpqhFPrEj16q0eO5AaiBtCH
lopjzrH7Bvw1deNAoZcXgdxkIkytKbpirsX8dHxgyHw8Y5Is9crn30edN5utf1cl
t1rV9EDvtVGZlylpe6XiOX66R0HtTnYJO2VZtFptlFMzDjd2/dHaKzc/VxwgJvdG
g6toLSxRD5HkNriPtXqwXmvtEA1Bz66aSdD2bkuFlpI5+pNqlbU4g2ZVaB3mIY8b
O2oJMZKZRNQcbRBWTcZO5FxIEMPY/6y5wfPmJNx+kGzh1Y2zC0hYzTOL1KiR4VOc
QQKCAQEAnq7t0DqWK3zsV1UItEQM/ExShxNU+v6QJc3YS7jHYUD8n6CS7uz5R5jk
WCxDfqkCHcv0HCbZ7butRxmvKPHSf5sx9dC0rbxv59CYCaRdpuSAFnAHNZPo+33G
4jN0dbbEocxJazo/6uLklOduuqSDKXhMKPZFXNegQ7Luac7JcJwP7LFfteN07FZD
7iS+uvAGZECNZmi7TENe0/Ac0wz2HLm0QocSQS6hjPJVuj+kHPGH+nuLKWXAIIln
Fr2y8xjnjZOG06HDnav1DvwTyIQA+dv85QlMEwe+JmWslwyjQdLJxp7TRSfenii0
ZRDRFH74GkVKR4Gz2vdFFM75HO7dtg==
-----END PRIVATE KEY-----
