Certificate:
    Data:
        Version: 3 (0x2)
        Serial Number: 1 (0x1)
    Signature Algorithm: sha1WithRSAEncryption
        Issuer: C=CA, ST=Ontario, L=Toronto, O=University of Toronto, OU=ece568, CN=Test CA/emailAddress=test@example.com
        Validity
            Not Before: Oct 28 03:21:25 2018 GMT
            Not After : Jul 24 03:21:25 2021 GMT
        Subject: C=CA, ST=Ontario, L=TO, O=ece568, CN=Test Bob
        Subject Public Key Info:
            Public Key Algorithm: rsaEncryption
                Public-Key: (4096 bit)
                Modulus:
                    00:cf:4c:5f:5a:0d:74:cf:b7:17:bd:d7:a1:4b:a0:
                    22:52:d4:14:10:d9:53:c1:3b:d8:db:4f:09:14:a9:
                    b9:ef:f7:82:74:db:80:e5:72:90:f6:6c:dc:f0:e6:
                    c3:cb:28:6f:18:95:20:1b:90:3c:fa:f1:50:b1:15:
                    5f:5e:0c:39:eb:b0:8d:c6:52:3e:27:83:fd:b7:75:
                    5f:9d:9c:cb:db:81:25:24:3c:8d:9f:cf:d0:92:71:
                    09:52:dc:75:f1:0d:4a:db:35:56:49:a5:f8:c2:a8:
                    75:80:4f:fe:de:c5:56:e3:b2:6e:ca:a4:7e:44:f1:
                    9c:e1:51:22:e3:e2:86:ca:85:33:c3:c7:ea:f0:d5:
                    7b:66:9e:9b:7c:72:63:57:81:04:74:bc:a1:7b:ff:
                    db:2e:20:af:9d:fb:d5:f8:73:58:a6:b8:a4:05:75:
                    4b:55:dc:71:70:5c:f2:cd:0d:c6:91:92:0e:81:1c:
                    e4:bf:57:46:81:4a:77:84:72:a4:91:cd:a2:51:61:
                    cf:04:35:01:4b:45:ed:c3:4c:8d:4f:e5:71:41:ec:
                    8a:24:8e:8f:30:1c:6d:08:f5:21:77:55:ef:24:04:
                    54:d9:ae:8b:aa:d6:b7:6a:c4:ab:98:a6:7d:a0:72:
                    11:30:06:8f:aa:ae:3f:3e:bb:bf:f8:21:29:d4:bc:
                    fe:d8:b7:24:c0:c0:a6:85:b5:cb:9d:de:d3:4c:cf:
                    44:84:c5:4e:2c:18:38:73:fa:af:8f:b8:af:2a:c2:
                    bb:29:e9:04:46:4c:78:9b:e7:70:5a:71:02:f1:d7:
                    b8:a3:54:a0:e0:4c:94:b5:28:48:16:08:fb:14:94:
                    a9:1d:b9:e5:a2:2f:66:d5:ee:17:cc:ac:3b:35:1f:
                    a2:cf:e0:7c:d1:12:25:7b:af:12:1a:06:4c:8b:70:
                    31:4d:c0:5f:94:cd:f5:90:90:d1:bf:8c:b5:ed:3e:
                    dc:c1:60:90:6e:23:81:95:61:09:c0:f6:29:ce:54:
                    1e:85:21:8c:7b:30:f3:95:db:af:dd:2e:8a:e0:df:
                    4e:bf:e2:e2:43:52:fd:b5:cc:1b:f6:b5:9e:32:ff:
                    38:d5:97:5a:43:1a:dc:b8:6e:7f:04:df:52:5e:e7:
                    3d:f3:39:bd:39:35:ed:d7:4e:3e:2c:8a:5b:27:00:
                    18:b2:ec:26:85:00:23:98:5c:a1:60:b9:78:52:c8:
                    65:47:47:57:79:07:de:a1:d7:d7:55:d1:f0:33:1b:
                    12:5a:0d:2d:19:f3:f1:94:0d:3a:08:b0:74:fd:f7:
                    a6:0a:6f:4a:70:c0:be:de:0b:91:c6:2b:3f:6b:fc:
                    e2:13:ee:62:b8:e5:16:4f:60:da:4a:91:85:d6:f2:
                    50:b6:e1
                Exponent: 65537 (0x10001)
        X509v3 extensions:
            X509v3 Basic Constraints: critical
                CA:TRUE
            X509v3 Subject Key Identifier: 
                97:CB:5E:B3:E4:AD:3D:E5:5B:1E:DB:DD:44:47:BA:48:E4:B1:B6:C1
            X509v3 Authority Key Identifier: 
                keyid:33:2B:14:2C:2E:0D:FD:0D:5D:6D:53:E3:C7:C8:78:E8:0F:B1:5F:FE
                DirName:/C=CA/ST=Ontario/L=Toronto/O=University of Toronto/OU=ece568/CN=Test CA/emailAddress=test@example.com
                serial:BB:56:B2:DE:32:19:F1:98

    Signature Algorithm: sha1WithRSAEncryption
         71:83:1d:62:91:5e:04:a2:8c:09:ed:12:2a:91:02:bf:fd:a4:
         38:57:af:05:fe:e7:a1:fd:ba:b0:46:e4:49:a8:bb:37:57:f1:
         fc:f7:7d:1f:1f:1d:d3:9e:00:75:e7:b8:8c:50:91:ea:bb:43:
         c7:a6:7c:52:e6:33:00:dd:59:2c:39:9d:1a:d2:7d:4f:b3:26:
         c3:bf:e4:58:de:f6:e8:b8:c2:d4:a0:a8:e2:a2:55:c6:36:a6:
         07:10:9b:0c:0e:7f:e2:57:2c:e0:59:17:82:a9:f3:c8:f7:be:
         e9:43:89:e5:51:50:98:0e:d8:15:0c:8f:c1:00:c6:40:5c:0c:
         f0:e3:5c:8c:ef:88:41:b0:ec:c7:db:a2:36:db:f3:1e:fd:b0:
         a3:80:a3:1a:04:9c:15:c4:61:c7:5f:26:e9:af:d2:bd:bf:66:
         e2:d4:b6:b9:ae:20:86:e9:d5:62:a2:18:40:a4:ad:f9:84:0e:
         40:56:3d:8d:92:fc:66:0c:01:c9:15:09:3b:dc:99:0c:f8:86:
         e2:ee:6f:06:28:7d:3d:6c:c2:6d:5d:d8:8e:5a:14:db:8a:c9:
         fb:f6:73:d1:d3:e3:ea:12:af:b2:6c:e6:fc:d4:f6:6f:e5:c6:
         cd:ed:c4:db:70:b4:be:de:54:58:49:c6:e5:cd:83:5d:5c:d4:
         93:57:98:38:7b:05:6c:56:77:ed:32:c1:e3:7d:58:b1:c5:f0:
         95:49:40:3b:4d:8a:b7:70:34:13:28:38:a3:43:ba:82:78:b3:
         6f:29:c3:d9:47:78:74:ea:35:42:2d:76:50:2b:16:6e:da:8e:
         92:63:24:19:a4:dc:a6:1f:db:6e:16:30:99:b6:30:77:76:cf:
         40:10:f2:29:9c:c2:70:36:cd:5f:fc:ca:1a:05:55:d9:b0:2d:
         b7:7c:e3:78:63:69:39:85:3c:ad:e6:b6:14:83:33:cd:20:f7:
         35:88:86:9f:f8:f1:92:58:28:e5:26:c7:df:ac:8b:23:6f:fd:
         0e:3f:35:fe:36:56:33:94:13:ac:c5:95:1b:d7:8a:aa:a9:5c:
         92:8e:eb:b3:e7:ab:92:03:ca:7e:13:e2:44:b3:92:cc:de:ad:
         e3:3f:06:1c:fb:12:45:63:1c:ba:a4:9f:ba:fd:31:bd:60:45:
         4e:5a:8c:a9:92:3a:25:cd:48:6b:77:d0:ba:80:74:a5:21:9b:
         d7:67:e7:a8:1c:1d:5d:fe:cf:ad:36:f6:8e:1f:9f:8c:29:a2:
         bd:7b:63:b1:15:00:c8:b0:ac:3d:dc:b1:c4:e1:14:af:3b:fc:
         4e:e4:9a:9e:0b:79:8b:01:ff:8f:b0:2b:88:57:e4:45:ff:44:
         98:75:b7:45:9a:0c:bc:1e
-----BEGIN CERTIFICATE-----
MIIGYzCCBEugAwIBAgIBATANBgkqhkiG9w0BAQUFADCBlTELMAkGA1UEBhMCQ0Ex
EDAOBgNVBAgMB09udGFyaW8xEDAOBgNVBAcMB1Rvcm9udG8xHjAcBgNVBAoMFVVu
aXZlcnNpdHkgb2YgVG9yb250bzEPMA0GA1UECwwGZWNlNTY4MRAwDgYDVQQDDAdU
ZXN0IENBMR8wHQYJKoZIhvcNAQkBFhB0ZXN0QGV4YW1wbGUuY29tMB4XDTE4MTAy
ODAzMjEyNVoXDTIxMDcyNDAzMjEyNVowUDELMAkGA1UEBhMCQ0ExEDAOBgNVBAgM
B09udGFyaW8xCzAJBgNVBAcMAlRPMQ8wDQYDVQQKDAZlY2U1NjgxETAPBgNVBAMM
CFRlc3QgQm9iMIICIjANBgkqhkiG9w0BAQEFAAOCAg8AMIICCgKCAgEAz0xfWg10
z7cXvdehS6AiUtQUENlTwTvY208JFKm57/eCdNuA5XKQ9mzc8ObDyyhvGJUgG5A8
+vFQsRVfXgw567CNxlI+J4P9t3VfnZzL24ElJDyNn8/QknEJUtx18Q1K2zVWSaX4
wqh1gE/+3sVW47JuyqR+RPGc4VEi4+KGyoUzw8fq8NV7Zp6bfHJjV4EEdLyhe//b
LiCvnfvV+HNYprikBXVLVdxxcFzyzQ3GkZIOgRzkv1dGgUp3hHKkkc2iUWHPBDUB
S0Xtw0yNT+VxQeyKJI6PMBxtCPUhd1XvJARU2a6Lqta3asSrmKZ9oHIRMAaPqq4/
Pru/+CEp1Lz+2LckwMCmhbXLnd7TTM9EhMVOLBg4c/qvj7ivKsK7KekERkx4m+dw
WnEC8de4o1Sg4EyUtShIFgj7FJSpHbnloi9m1e4XzKw7NR+iz+B80RIle68SGgZM
i3AxTcBflM31kJDRv4y17T7cwWCQbiOBlWEJwPYpzlQehSGMezDzlduv3S6K4N9O
v+LiQ1L9tcwb9rWeMv841ZdaQxrcuG5/BN9SXuc98zm9OTXt104+LIpbJwAYsuwm
hQAjmFyhYLl4UshlR0dXeQfeodfXVdHwMxsSWg0tGfPxlA06CLB0/femCm9KcMC+
3guRxis/a/ziE+5iuOUWT2DaSpGF1vJQtuECAwEAAaOCAQAwgf0wDwYDVR0TAQH/
BAUwAwEB/zAdBgNVHQ4EFgQUl8tes+StPeVbHtvdREe6SOSxtsEwgcoGA1UdIwSB
wjCBv4AUMysULC4N/Q1dbVPjx8h46A+xX/6hgZukgZgwgZUxCzAJBgNVBAYTAkNB
MRAwDgYDVQQIDAdPbnRhcmlvMRAwDgYDVQQHDAdUb3JvbnRvMR4wHAYDVQQKDBVV
bml2ZXJzaXR5IG9mIFRvcm9udG8xDzANBgNVBAsMBmVjZTU2ODEQMA4GA1UEAwwH
VGVzdCBDQTEfMB0GCSqGSIb3DQEJARYQdGVzdEBleGFtcGxlLmNvbYIJALtWst4y
GfGYMA0GCSqGSIb3DQEBBQUAA4ICAQBxgx1ikV4EoowJ7RIqkQK//aQ4V68F/ueh
/bqwRuRJqLs3V/H8930fHx3TngB157iMUJHqu0PHpnxS5jMA3VksOZ0a0n1PsybD
v+RY3vbouMLUoKjiolXGNqYHEJsMDn/iVyzgWReCqfPI977pQ4nlUVCYDtgVDI/B
AMZAXAzw41yM74hBsOzH26I22/Me/bCjgKMaBJwVxGHHXybpr9K9v2bi1La5riCG
6dViohhApK35hA5AVj2NkvxmDAHJFQk73JkM+Ibi7m8GKH09bMJtXdiOWhTbisn7
9nPR0+PqEq+ybOb81PZv5cbN7cTbcLS+3lRYScblzYNdXNSTV5g4ewVsVnftMsHj
fVixxfCVSUA7TYq3cDQTKDijQ7qCeLNvKcPZR3h06jVCLXZQKxZu2o6SYyQZpNym
H9tuFjCZtjB3ds9AEPIpnMJwNs1f/MoaBVXZsC23fON4Y2k5hTyt5rYUgzPNIPc1
iIaf+PGSWCjlJsffrIsjb/0OPzX+NlYzlBOsxZUb14qqqVySjuuz56uSA8p+E+JE
s5LM3q3jPwYc+xJFYxy6pJ+6/TG9YEVOWoypkjolzUhrd9C6gHSlIZvXZ+eoHB1d
/s+tNvaOH5+MKaK9e2OxFQDIsKw93LHE4RSvO/xO5JqeC3mLAf+PsCuIV+RF/0SY
dbdFmgy8Hg==
-----END CERTIFICATE-----
-----BEGIN PRIVATE KEY-----
MIIJQwIBADANBgkqhkiG9w0BAQEFAASCCS0wggkpAgEAAoICAQDPTF9aDXTPtxe9
16FLoCJS1BQQ2VPBO9jbTwkUqbnv94J024DlcpD2bNzw5sPLKG8YlSAbkDz68VCx
FV9eDDnrsI3GUj4ng/23dV+dnMvbgSUkPI2fz9CScQlS3HXxDUrbNVZJpfjCqHWA
T/7exVbjsm7KpH5E8ZzhUSLj4obKhTPDx+rw1Xtmnpt8cmNXgQR0vKF7/9suIK+d
+9X4c1imuKQFdUtV3HFwXPLNDcaRkg6BHOS/V0aBSneEcqSRzaJRYc8ENQFLRe3D
TI1P5XFB7Iokjo8wHG0I9SF3Ve8kBFTZrouq1rdqxKuYpn2gchEwBo+qrj8+u7/4
ISnUvP7YtyTAwKaFtcud3tNMz0SExU4sGDhz+q+PuK8qwrsp6QRGTHib53BacQLx
17ijVKDgTJS1KEgWCPsUlKkdueWiL2bV7hfMrDs1H6LP4HzREiV7rxIaBkyLcDFN
wF+UzfWQkNG/jLXtPtzBYJBuI4GVYQnA9inOVB6FIYx7MPOV26/dLorg306/4uJD
Uv21zBv2tZ4y/zjVl1pDGty4bn8E31Je5z3zOb05Ne3XTj4silsnABiy7CaFACOY
XKFguXhSyGVHR1d5B96h19dV0fAzGxJaDS0Z8/GUDToIsHT996YKb0pwwL7eC5HG
Kz9r/OIT7mK45RZPYNpKkYXW8lC24QIDAQABAoICAQCjOVx/GMdYYq9kAOx1ErLU
Cz99gNIM/eWj0ViyF25bv8TN5KRahloUXuWdHecfCUhoz8sHSQxq/yXtOYntEK1u
oocPmGRuUuSs1tOh0/tEbCzlmnRdWJG/LRgNUZ/gXPoLHrVBqlj0VRaoINTrbfEb
ury3/Mub168STwOs8gn2XunCh6C7Xy0aQVrmo18LYIA0tu5kJ7LaYExHlisFxTUR
maM01QWrprb/pYBc6zLmHl4jVa/b5YmTdiIjfO2ODJ95ew05H89UCMzNEXLXbS8/
nFOtsz6VwFwuSG3AfD6fWnXBLUm2C/lCLXd76+RROF/GM/RdjXQpHkZqxxob83Cp
osKYfp79U+esIq8LEOTNrwEg/lvAu/UUEIq5f6RfZLm6h+mi2UWNCoLPQpsC5XbD
XU3aF8zUs2g8YoRNis1BN7O0rr+conxj835M9LzxuxmeULNDUwLGXvD+xZpPj0VX
DIx9EHGF3oGQM6fYIAMAR0XTuuyenyRN1LJO4rDnBhIUr9oASk3TMju3MgX4g6mo
N94OVjYC+eL/pgVF/2LBtW8aL0cxPNnwWDYaXykOJwyTEl5wtLLCT8iewMfG17PX
BlA/6CRCMt9pVGcrI8pl12s/GzyMmZrP7hBScOtPJiH/eBFPC4ep6yc4va8RO53B
VdlS85Egd1f3Su9vpzJnAQKCAQEA6aG5zQ7WP19Ic8edG7j7FG9HNfUfWDESpb6k
zV/HLWe+i2xteT7lnIITwIu+Pr78okei0AFzZEg9SFEKl07Zl6DySSFt9sg54gqZ
3EE+yu2vtRYSRi0Phd3tyqJyiJPNrk1tTRmK2Pc82DoH3lDPdnbTizU8QGp97Buk
+ZLLMY0Ee0BXHrbe0p2z09wrVWTeTtoZOv6+iLR6uU9szcLQ6c6x1nfxq9re2I6c
i5MEWBbxewluLyMdQiNbdbkLrdLPYyUXQm7gW4p2n3N6vpWBg77Eb68A21myUTeY
Fy/+UCrvs6VCo0D7cRaB804qPM+FX08o2oY3eLMRWQ+MYmvtEQKCAQEA4yU4IN0f
xOaFjrWEDiH4jJ3x/4isoOrdi+nUrAoqL/wfISAhaxcyTazlqfGb53RbeM34WKDm
/oHMTlR5CZoIa7IA+y/uEylRq78Nkx0S+FPBMJd/GED5ObWCRFMoPv9k2HfhkhqH
p5ZbdG3Q91e3E6UnaFgavMwys4/2wBAz0SsaS12gi99nV2Is38oU4tLMQNA5ZW5q
0YTUVjyEIoKKlhOV0Q2Zl6GvnjHMmKHfnz//IhTGWPQcTufcsTet9pV7FxHZ57AQ
jIfwuL4HPj+7lp3ctpJnbcGC7SBtITsJZnoPRJVfvYsdIjeoviWj0y1bLiapzxm6
2NOiHtC3cSFs0QKCAQAzs5VxepIRDh3zeT4cT3BI0mNY3njkRF/TDABebo6eTrIN
Gp6TUUbwvpxuZL5iFlPD+cRe8aM+kvn00fJdD5b5hiV354z1KtQcYKox4sJpl/Xl
RhAfNYOU5UrlJ9Pew46lvv6sLDXc08HEO/tXyFxQ4/Tmfo5p1ucs4+U7Ua/jtEhE
mjVtV5yx0TJldPil+h90JbGlq5AwonfyIFB8rFsdEp+qTXrOxC3CkLS18n/ompMv
3iNjDQtBgp+PyrZ57gf08dVW30CJIXgkyyJjoKQ7qnDAImM3J39dl8bxgq5twUKw
Z6b6h7vdB9UUKb0RHf9u2w64ZTFLZZ02L0mq0iVxAoIBADor/gPsnYY/w1SZCAjW
imD40lEvH4bWn4aFjAHDWKqRVyeUovpaJnfeH7M2PUc5dXOqzD9mdcIYW8pzt8vN
tvpdzAKIc+BUZKYnd8KFX6ZZTNC0+8eqXCl7YrE82sHHhnwpt4tDYBp7V1CqDypJ
PIm7ciw25CIV6aYy6G6nt52J/GHwyH0J6d1nNzbY+iBc/BJdQVXIwXKHIhozxWNR
K0zkFypC4WMD9YX+Gve7/Rk7uotv5pxBaD6NAugf6l2MSsnNuJCtdo+HAQ9PG2vF
xrT8GNppBDQHqxAvjcNE61NjTyWxW6OfTQbGWmDYIuyiYQegvzxayo9dI9fgfBpt
BQECggEBAL2qNRQ7xqyYrmOQQMpf0+fUv09aqvidEAL0sTVzwoYhEQ/FCgx3Q6+p
Bh518CJrAeB1YdfKBQHBVlDc/Rc8FCHrbxm23T4LASztmEXncyyc6qnZtXeiiM68
y2vBJY35gjY6iq+rSDRyJiDS824QTtV/K3Oprcx4Hmh/LktGw/H9elLOuKzwD6VY
NE8CRlGaE9nyzKqZ/p/Ke2O59djaIpftlbRt4DpmXz3P6XAo1HqoTH9a0Og3CcME
G543PwHMj5mkXa8v0uOo9kb4+WGK1FQFAacLip8MQD/zWWFuOrjhsERFSu/FrEj+
84jwohmJHOBEIf0oJyNbsXMM9fhdM3I=
-----END PRIVATE KEY-----
